; Function Attrs: mustprogress uwtable
define hidden void @_ZN4cvc58internal6theory11quantifiers10SygusUtils20setSygusArgumentListENS0_12NodeTemplateILb1EEERKS5_(ptr noundef readonly captures(none) %0, ptr noundef nonnull align 8 dereferenceable(8) %1) local_unnamed_addr #3 align 2 personality ptr @__gxx_personality_v0 {
  %3 = alloca %"class.cvc5::internal::expr::Attribute.78", align 1
  %4 = load ptr, ptr %1, align 8, !tbaa !18
  %5 = load atomic i8, ptr @_ZGVZN4cvc58internal4expr9NodeValue4nullEvE6s_null acquire, align 8
  %6 = icmp eq i8 %5, 0
  br i1 %6, label %7, label %_ZNK4cvc58internal12NodeTemplateILb1EE6isNullEv.exit, !prof !124

7:                                                ; preds = %2
  %8 = tail call i32 @__cxa_guard_acquire(ptr nonnull @_ZGVZN4cvc58internal4expr9NodeValue4nullEvE6s_null) #22
  %.not.i.i = icmp eq i32 %8, 0
  br i1 %.not.i.i, label %_ZNK4cvc58internal12NodeTemplateILb1EE6isNullEv.exit, label %9

9:                                                ; preds = %7
  %10 = invoke noalias noundef nonnull dereferenceable(24) ptr @_Znwm(i64 noundef 24) #25
          to label %11 unwind label %13

11:                                               ; preds = %9
  store i64 1152920405095219200, ptr %10, align 8
  %12 = getelementptr inbounds nuw i8, ptr %10, i64 8
  tail call void @llvm.memset.p0.i64(ptr noundef nonnull align 8 dereferenceable(16) %12, i8 0, i64 16, i1 false)
  store ptr %10, ptr @_ZZN4cvc58internal4expr9NodeValue4nullEvE6s_null, align 8, !tbaa !125
  tail call void @__cxa_guard_release(ptr nonnull @_ZGVZN4cvc58internal4expr9NodeValue4nullEvE6s_null) #22
  br label %_ZNK4cvc58internal12NodeTemplateILb1EE6isNullEv.exit

13:                                               ; preds = %9
  %14 = landingpad { ptr, i32 }
          cleanup
  tail call void @__cxa_guard_abort(ptr nonnull @_ZGVZN4cvc58internal4expr9NodeValue4nullEvE6s_null) #22
  resume { ptr, i32 } %14

_ZNK4cvc58internal12NodeTemplateILb1EE6isNullEv.exit: ; preds = %2, %7, %11
  %15 = load ptr, ptr @_ZZN4cvc58internal4expr9NodeValue4nullEvE6s_null, align 8, !tbaa !125
  %16 = icmp eq ptr %4, %15
  br i1 %16, label %23, label %17

17:                                               ; preds = %_ZNK4cvc58internal12NodeTemplateILb1EE6isNullEv.exit
  %18 = load ptr, ptr %0, align 8, !tbaa !18
  %19 = getelementptr inbounds nuw i8, ptr %18, i64 16
  %20 = load ptr, ptr %19, align 8, !tbaa !20
  %21 = getelementptr inbounds nuw i8, ptr %20, i64 80
  %22 = load ptr, ptr %21, align 8, !tbaa !24
  call void @llvm.lifetime.start.p0(i64 1, ptr nonnull %3) #22
  call void @_ZN4cvc58internal4expr4attr16AttributeManager12setAttributeINS1_9AttributeINS0_6theory11quantifiers31SygusSynthFunVarListAttributeIdENS0_12NodeTemplateILb1EEEEEEEvPNS1_9NodeValueERKT_RKNSE_10value_typeE(ptr noundef nonnull align 8 dereferenceable(344) %22, ptr noundef nonnull %18, ptr noundef nonnull align 1 dereferenceable(1) %3, ptr noundef nonnull align 8 dereferenceable(8) %1)
  call void @llvm.lifetime.end.p0(i64 1, ptr nonnull %3) #22
  br label %23

23:                                               ; preds = %17, %_ZNK4cvc58internal12NodeTemplateILb1EE6isNullEv.exit
  ret void
}